; Function Attrs: mustprogress uwtable
define void @_ZN6casadi2MX5eraseERKSt6vectorIxSaIxEES5_b(ptr noundef nonnull align 8 dereferenceable(8) %0, ptr noundef nonnull align 8 dereferenceable(24) %1, ptr noundef nonnull align 8 dereferenceable(24) %2, i1 noundef zeroext %3) local_unnamed_addr #3 align 2 personality ptr @__gxx_personality_v0 {
  %5 = alloca %"class.casadi::Sparsity", align 8
  %6 = alloca %"class.std::vector", align 8
  %7 = alloca %"class.casadi::MX", align 8
  %8 = tail call noundef ptr @_ZNK6casadi12SharedObjectptEv(ptr noundef nonnull align 8 dereferenceable(8) %0)
  %9 = getelementptr inbounds i8, ptr %8, i64 56
  call void @_ZN6casadi12SharedObjectC2ERKS0_(ptr noundef nonnull align 8 dereferenceable(8) %5, ptr noundef nonnull align 8 dereferenceable(8) %9)
  invoke void @_ZN6casadi8Sparsity5eraseERKSt6vectorIxSaIxEES5_b(ptr dead_on_unwind nonnull writable sret(%"class.std::vector") align 8 %6, ptr noundef nonnull align 8 dereferenceable(8) %5, ptr noundef nonnull align 8 dereferenceable(24) %1, ptr noundef nonnull align 8 dereferenceable(24) %2, i1 noundef zeroext %3)
          to label %10 unwind label %28

10:                                               ; preds = %4
  %11 = getelementptr inbounds i8, ptr %6, i64 8
  %12 = load ptr, ptr %11, align 8
  %13 = load ptr, ptr %6, align 8
  %14 = ptrtoint ptr %12 to i64
  %15 = ptrtoint ptr %13 to i64
  %16 = sub i64 %14, %15
  %17 = ashr exact i64 %16, 3
  %18 = invoke noundef ptr @_ZNK6casadi12SharedObjectptEv(ptr noundef nonnull align 8 dereferenceable(8) %0)
          to label %.noexc unwind label %30

.noexc:                                           ; preds = %10
  %19 = getelementptr inbounds i8, ptr %18, i64 56
  %20 = invoke noundef i64 @_ZNK6casadi8Sparsity3nnzEv(ptr noundef nonnull align 8 dereferenceable(8) %19)
          to label %_ZNK6casadi13GenericMatrixINS_2MXEE3nnzEv.exit unwind label %30

_ZNK6casadi13GenericMatrixINS_2MXEE3nnzEv.exit:   ; preds = %.noexc
  %.not = icmp eq i64 %17, %20
  br i1 %.not, label %34, label %21

21:                                               ; preds = %_ZNK6casadi13GenericMatrixINS_2MXEE3nnzEv.exit
  %22 = invoke noundef ptr @_ZNK6casadi12SharedObjectptEv(ptr noundef nonnull align 8 dereferenceable(8) %0)
          to label %_ZN6casadi2MXptEv.exit unwind label %30

_ZN6casadi2MXptEv.exit:                           ; preds = %21
  %23 = load ptr, ptr %22, align 8
  %24 = getelementptr inbounds i8, ptr %23, i64 616
  %25 = load ptr, ptr %24, align 8
  invoke void %25(ptr dead_on_unwind nonnull writable sret(%"class.casadi::MX") align 8 %7, ptr noundef nonnull align 8 dereferenceable(64) %22, ptr noundef nonnull align 8 dereferenceable(8) %5, ptr noundef nonnull align 8 dereferenceable(24) %6)
          to label %26 unwind label %30

26:                                               ; preds = %_ZN6casadi2MXptEv.exit
  %27 = invoke noundef nonnull align 8 dereferenceable(8) ptr @_ZN6casadi12SharedObjectaSERKS0_(ptr noundef nonnull align 8 dereferenceable(8) %0, ptr noundef nonnull align 8 dereferenceable(8) %7)
          to label %_ZN6casadi2MXaSERKS0_.exit unwind label %32

_ZN6casadi2MXaSERKS0_.exit:                       ; preds = %26
  call void @_ZN6casadi2MXD1Ev(ptr noundef nonnull align 8 dereferenceable(8) %7) #27
  br label %34

28:                                               ; preds = %4
  %29 = landingpad { ptr, i32 }
          cleanup
  br label %_ZNSt6vectorIxSaIxEED2Ev.exit13

30:                                               ; preds = %21, %.noexc, %10, %_ZN6casadi2MXptEv.exit
  %31 = landingpad { ptr, i32 }
          cleanup
  br label %37

32:                                               ; preds = %26
  %33 = landingpad { ptr, i32 }
          cleanup
  call void @_ZN6casadi2MXD1Ev(ptr noundef nonnull align 8 dereferenceable(8) %7) #27
  br label %37

34:                                               ; preds = %_ZN6casadi2MXaSERKS0_.exit, %_ZNK6casadi13GenericMatrixINS_2MXEE3nnzEv.exit
  %35 = load ptr, ptr %6, align 8
  %.not.i.i.i = icmp eq ptr %35, null
  br i1 %.not.i.i.i, label %_ZNSt6vectorIxSaIxEED2Ev.exit, label %36

36:                                               ; preds = %34
  call void @_ZdlPv(ptr noundef nonnull %35) #30
  br label %_ZNSt6vectorIxSaIxEED2Ev.exit

_ZNSt6vectorIxSaIxEED2Ev.exit:                    ; preds = %34, %36
  call void @_ZN6casadi12SharedObjectD2Ev(ptr noundef nonnull align 8 dereferenceable(8) %5) #27
  ret void

37:                                               ; preds = %32, %30
  %.pn = phi { ptr, i32 } [ %33, %32 ], [ %31, %30 ]
  %38 = load ptr, ptr %6, align 8
  %.not.i.i.i12 = icmp eq ptr %38, null
  br i1 %.not.i.i.i12, label %_ZNSt6vectorIxSaIxEED2Ev.exit13, label %39

39:                                               ; preds = %37
  call void @_ZdlPv(ptr noundef nonnull %38) #30
  br label %_ZNSt6vectorIxSaIxEED2Ev.exit13

_ZNSt6vectorIxSaIxEED2Ev.exit13:                  ; preds = %39, %37, %28
  %.pn.pn = phi { ptr, i32 } [ %29, %28 ], [ %.pn, %37 ], [ %.pn, %39 ]
  call void @_ZN6casadi12SharedObjectD2Ev(ptr noundef nonnull align 8 dereferenceable(8) %5) #27
  resume { ptr, i32 } %.pn.pn
}